Certificate:
    Data:
        Version: 3 (0x2)
        Serial Number: 2 (0x2)
    Signature Algorithm: sha256WithRSAEncryption
        Issuer: C=US, ST=CA, L=SanDiego, O=Example Company, OU=MyOrgUnit, CN=Example Company CA/name=server/emailAddress=info@example.com
        Validity
            Not Before: Nov 14 19:28:06 2015 GMT
            Not After : Nov 11 19:28:06 2025 GMT
        Subject: C=US, ST=CA, L=SanDiego, O=Example Company, OU=MyOrgUnit, CN=sk4bs/name=server/emailAddress=info@example.com
        Subject Public Key Info:
            Public Key Algorithm: rsaEncryption
                Public-Key: (2048 bit)
                Modulus:
                    00:c9:86:ee:ab:83:21:39:ed:03:5c:ec:16:9b:cf:
                    28:ba:f0:b2:b2:b5:a3:35:62:10:ed:4b:30:c5:d3:
                    e0:a7:b9:e0:0b:78:f2:50:8e:43:03:f7:7d:b6:c3:
                    60:79:1d:c7:66:59:d5:10:7c:d8:6d:3a:59:35:cf:
                    8d:d9:7d:a7:8c:1f:90:28:76:a3:67:35:96:d8:e0:
                    18:a2:01:39:e7:d1:8d:b9:15:7e:28:87:d3:f1:8f:
                    26:23:c9:74:62:47:f4:cb:07:d0:f3:e9:08:b2:69:
                    23:ed:85:b8:6f:67:d6:dd:70:b2:db:84:2e:40:a8:
                    4a:85:f9:0c:bf:2f:dc:f1:f8:9d:66:d3:7f:bc:1c:
                    3b:63:02:7b:b2:e8:92:3a:dc:00:5e:55:84:d9:d9:
                    7c:80:c3:02:a8:09:d1:44:36:aa:73:ce:77:ee:0e:
                    3e:74:ac:12:1e:39:d3:ec:da:0c:02:d3:67:3d:13:
                    3c:a6:4b:a4:fb:b6:4f:d5:2c:f6:89:14:99:06:a6:
                    a9:c9:b3:04:74:93:f5:1c:65:5c:8f:b3:50:6e:48:
                    e3:79:cd:5b:7e:31:1d:c2:c6:82:a8:aa:0d:f2:2b:
                    61:7e:d5:56:fb:46:39:e5:7a:e9:e8:2c:43:73:e5:
                    4d:3c:a9:53:60:42:f3:2c:3d:fb:d3:12:1b:b3:f2:
                    c4:6d
                Exponent: 65537 (0x10001)
        X509v3 extensions:
            X509v3 Basic Constraints: 
                CA:FALSE
            Netscape Comment: 
                Easy-RSA Generated Certificate
            X509v3 Subject Key Identifier: 
                06:59:46:05:66:46:74:6B:E4:4A:58:9E:CE:3B:25:64:CB:86:10:62
            X509v3 Authority Key Identifier: 
                keyid:3C:DA:52:E9:8A:99:BB:82:30:4B:7B:3B:F7:64:80:78:FF:2E:A5:4F
                DirName:/C=US/ST=CA/L=SanDiego/O=Example Company/OU=MyOrgUnit/CN=Example Company CA/name=server/emailAddress=info@example.com
                serial:A7:F4:8D:88:8A:F2:7E:9D

            X509v3 Extended Key Usage: 
                TLS Web Client Authentication
            X509v3 Key Usage: 
                Digital Signature
            X509v3 Subject Alternative Name: 
                DNS:sk4bs
    Signature Algorithm: sha256WithRSAEncryption
         b7:17:08:8e:9f:3b:ca:af:01:f2:9f:10:00:ad:35:e5:71:e6:
         f0:c5:a9:ae:36:30:a4:44:56:6c:fb:c4:8f:39:27:d4:31:23:
         f0:e6:4e:68:1d:fe:dd:97:52:ca:68:06:5e:fa:03:b7:4f:32:
         7e:60:f0:c5:4d:a6:0b:f9:24:4a:25:b1:a1:89:f5:a4:24:b7:
         56:a7:62:44:58:cd:7b:64:50:b8:3d:39:96:9c:02:98:36:04:
         e5:41:e0:3f:78:bd:52:5e:b3:78:e6:3c:b3:19:e4:49:cc:07:
         7f:fe:e2:48:79:01:c5:50:e4:7b:43:3a:4c:7d:64:83:e2:97:
         c2:6d:f5:bc:14:d6:ef:82:49:df:d1:93:96:79:50:c8:ac:11:
         92:25:dc:52:7f:5d:e6:ac:61:70:bc:e8:bf:b5:46:c2:b8:07:
         11:89:9d:bb:92:53:1a:4f:cf:87:33:27:fb:47:21:d1:92:a1:
         82:9d:e4:3f:98:3d:5f:d3:c8:e6:9f:e6:d4:c9:ef:f5:fd:0a:
         45:b3:36:20:4a:5b:9f:5b:4b:c9:38:3e:4c:6b:f3:a0:9a:58:
         58:62:f8:ef:4f:d5:a8:5d:82:f2:ac:19:f6:1f:fb:b0:7d:24:
         fc:50:71:f2:d5:33:8c:be:ab:0b:34:fc:cf:a0:db:52:c6:0e:
         8b:db:8c:58
-----BEGIN CERTIFICATE-----
MIIFOTCCBCGgAwIBAgIBAjANBgkqhkiG9w0BAQsFADCBqjELMAkGA1UEBhMCVVMx
CzAJBgNVBAgTAkNBMREwDwYDVQQHEwhTYW5EaWVnbzEYMBYGA1UEChMPRXhhbXBs
ZSBDb21wYW55MRIwEAYDVQQLEwlNeU9yZ1VuaXQxGzAZBgNVBAMTEkV4YW1wbGUg
Q29tcGFueSBDQTEPMA0GA1UEKRMGc2VydmVyMR8wHQYJKoZIhvcNAQkBFhBpbmZv
QGV4YW1wbGUuY29tMB4XDTE1MTExNDE5MjgwNloXDTI1MTExMTE5MjgwNlowgZ0x
CzAJBgNVBAYTAlVTMQswCQYDVQQIEwJDQTERMA8GA1UEBxMIU2FuRGllZ28xGDAW
BgNVBAoTD0V4YW1wbGUgQ29tcGFueTESMBAGA1UECxMJTXlPcmdVbml0MQ4wDAYD
VQQDEwVzazRiczEPMA0GA1UEKRMGc2VydmVyMR8wHQYJKoZIhvcNAQkBFhBpbmZv
QGV4YW1wbGUuY29tMIIBIjANBgkqhkiG9w0BAQEFAAOCAQ8AMIIBCgKCAQEAyYbu
q4MhOe0DXOwWm88ouvCysrWjNWIQ7UswxdPgp7ngC3jyUI5DA/d9tsNgeR3HZlnV
EHzYbTpZNc+N2X2njB+QKHajZzWW2OAYogE559GNuRV+KIfT8Y8mI8l0Ykf0ywfQ
8+kIsmkj7YW4b2fW3XCy24QuQKhKhfkMvy/c8fidZtN/vBw7YwJ7suiSOtwAXlWE
2dl8gMMCqAnRRDaqc8537g4+dKwSHjnT7NoMAtNnPRM8pkuk+7ZP1Sz2iRSZBqap
ybMEdJP1HGVcj7NQbkjjec1bfjEdwsaCqKoN8ithftVW+0Y55Xrp6CxDc+VNPKlT
YELzLD370xIbs/LEbQIDAQABo4IBczCCAW8wCQYDVR0TBAIwADAtBglghkgBhvhC
AQ0EIBYeRWFzeS1SU0EgR2VuZXJhdGVkIENlcnRpZmljYXRlMB0GA1UdDgQWBBQG
WUYFZkZ0a+RKWJ7OOyVky4YQYjCB3wYDVR0jBIHXMIHUgBQ82lLpipm7gjBLezv3
ZIB4/y6lT6GBsKSBrTCBqjELMAkGA1UEBhMCVVMxCzAJBgNVBAgTAkNBMREwDwYD
VQQHEwhTYW5EaWVnbzEYMBYGA1UEChMPRXhhbXBsZSBDb21wYW55MRIwEAYDVQQL
EwlNeU9yZ1VuaXQxGzAZBgNVBAMTEkV4YW1wbGUgQ29tcGFueSBDQTEPMA0GA1UE
KRMGc2VydmVyMR8wHQYJKoZIhvcNAQkBFhBpbmZvQGV4YW1wbGUuY29tggkAp/SN
iIryfp0wEwYDVR0lBAwwCgYIKwYBBQUHAwIwCwYDVR0PBAQDAgeAMBAGA1UdEQQJ
MAeCBXNrNGJzMA0GCSqGSIb3DQEBCwUAA4IBAQC3FwiOnzvKrwHynxAArTXlcebw
xamuNjCkRFZs+8SPOSfUMSPw5k5oHf7dl1LKaAZe+gO3TzJ+YPDFTaYL+SRKJbGh
ifWkJLdWp2JEWM17ZFC4PTmWnAKYNgTlQeA/eL1SXrN45jyzGeRJzAd//uJIeQHF
UOR7QzpMfWSD4pfCbfW8FNbvgknf0ZOWeVDIrBGSJdxSf13mrGFwvOi/tUbCuAcR
iZ27klMaT8+HMyf7RyHRkqGCneQ/mD1f08jmn+bUye/1/QpFszYgSlufW0vJOD5M
a/OgmlhYYvjvT9WoXYLyrBn2H/uwfST8UHHy1TOMvqsLNPzPoNtSxg6L24xY
-----END CERTIFICATE-----
