Certificate:
    Data:
        Version: 3 (0x2)
        Serial Number: 1 (0x1)
    Signature Algorithm: sha256WithRSAEncryption
        Issuer: C=US, ST=CA, L=SanDiego, O=Example Company, OU=MyOrgUnit, CN=Example Company CA/name=server/emailAddress=info@example.com
        Validity
            Not Before: Nov 14 19:26:39 2015 GMT
            Not After : Nov 11 19:26:39 2025 GMT
        Subject: C=US, ST=CA, L=SanDiego, O=Example Company, OU=MyOrgUnit, CN=server/name=server/emailAddress=info@example.com
        Subject Public Key Info:
            Public Key Algorithm: rsaEncryption
                Public-Key: (2048 bit)
                Modulus:
                    00:9d:79:6d:c1:84:03:aa:73:53:44:69:14:29:f6:
                    ec:1f:c9:1a:5d:8e:e0:2b:84:26:9d:c0:d9:50:69:
                    77:c9:b6:f1:43:a4:59:2e:df:72:b6:de:78:5a:bd:
                    01:68:f0:1b:e2:9d:6f:42:b2:93:0a:5d:5c:39:24:
                    76:75:17:1c:16:02:12:d5:44:bf:b7:ac:36:91:da:
                    2d:b0:e4:a3:a4:00:69:b5:ef:63:64:92:5a:9d:de:
                    08:17:bf:18:8e:41:14:fd:b3:34:3b:6f:e6:17:0c:
                    fe:40:93:ca:c9:06:cc:5a:73:d7:76:d3:f7:c2:55:
                    7e:a6:d4:53:e4:fa:32:ac:46:90:02:b9:30:f6:3f:
                    4d:0c:94:5b:6c:87:2f:7b:7e:ed:93:1b:11:26:50:
                    7d:1a:95:6a:df:fc:41:a2:3f:82:f1:9a:bd:4e:c7:
                    76:41:92:a4:a4:38:6e:97:90:3f:5a:b9:42:57:93:
                    73:a8:1f:0a:25:2b:01:57:98:1c:e7:92:6d:3d:7f:
                    7b:f5:28:89:85:67:1e:74:16:a6:d1:41:62:73:61:
                    71:ad:4a:63:f3:04:44:74:bc:05:e7:47:16:6b:9f:
                    fc:9d:0a:b8:d8:e1:22:d0:53:17:00:6b:33:53:62:
                    d4:f7:cc:40:fa:9d:14:59:f7:b8:23:b5:d5:f6:ea:
                    03:51
                Exponent: 65537 (0x10001)
        X509v3 extensions:
            X509v3 Basic Constraints: 
                CA:FALSE
            Netscape Cert Type: 
                SSL Server
            Netscape Comment: 
                Easy-RSA Generated Server Certificate
            X509v3 Subject Key Identifier: 
                68:00:77:96:5E:A0:A4:5F:E1:F1:83:F1:6D:BA:AF:BE:21:3B:DA:82
            X509v3 Authority Key Identifier: 
                keyid:3C:DA:52:E9:8A:99:BB:82:30:4B:7B:3B:F7:64:80:78:FF:2E:A5:4F
                DirName:/C=US/ST=CA/L=SanDiego/O=Example Company/OU=MyOrgUnit/CN=Example Company CA/name=server/emailAddress=info@example.com
                serial:A7:F4:8D:88:8A:F2:7E:9D

            X509v3 Extended Key Usage: 
                TLS Web Server Authentication
            X509v3 Key Usage: 
                Digital Signature, Key Encipherment
            X509v3 Subject Alternative Name: 
                DNS:server
    Signature Algorithm: sha256WithRSAEncryption
         82:c4:5f:0b:d1:26:d0:5a:23:f8:dc:bc:7c:12:df:db:96:54:
         ac:d0:02:4d:37:c5:2b:36:44:c1:2b:5c:56:e7:f0:25:9a:67:
         40:53:26:2f:82:0a:53:6e:bb:4c:68:e2:6e:80:cc:24:4c:f7:
         91:5d:b5:a9:ed:73:de:20:cd:51:ac:28:d2:92:43:39:be:ec:
         95:13:be:5a:de:33:b7:6c:a3:5b:c7:7a:c2:5b:90:6c:73:d2:
         b8:db:d3:ac:93:69:8c:02:0e:27:65:53:b8:fd:e2:8e:75:36:
         4f:3e:45:e0:08:de:c9:db:c6:cb:55:27:a5:69:1e:43:fe:f5:
         ad:cd:21:16:27:5c:d1:e1:23:1f:00:de:d4:c6:ac:c5:da:e0:
         7f:f2:da:1a:e2:84:ea:6a:0e:77:2c:07:b3:2d:af:8e:60:f6:
         e6:f5:91:28:f4:f4:84:23:15:46:44:54:bf:cf:13:dc:3d:8d:
         bc:41:61:a1:3c:2b:aa:12:d8:e1:3e:b4:28:ed:97:0a:8c:b9:
         92:74:88:f4:65:32:c4:1d:73:f4:08:85:7b:69:d3:79:3c:5f:
         19:76:cc:e5:1b:46:72:90:2c:83:d8:d1:a0:01:9b:25:b4:03:
         d6:68:0e:2e:89:7c:93:74:e5:08:64:47:5d:a9:f7:9f:f1:d8:
         5d:67:4f:41
-----BEGIN CERTIFICATE-----
MIIFVTCCBD2gAwIBAgIBATANBgkqhkiG9w0BAQsFADCBqjELMAkGA1UEBhMCVVMx
CzAJBgNVBAgTAkNBMREwDwYDVQQHEwhTYW5EaWVnbzEYMBYGA1UEChMPRXhhbXBs
ZSBDb21wYW55MRIwEAYDVQQLEwlNeU9yZ1VuaXQxGzAZBgNVBAMTEkV4YW1wbGUg
Q29tcGFueSBDQTEPMA0GA1UEKRMGc2VydmVyMR8wHQYJKoZIhvcNAQkBFhBpbmZv
QGV4YW1wbGUuY29tMB4XDTE1MTExNDE5MjYzOVoXDTI1MTExMTE5MjYzOVowgZ4x
CzAJBgNVBAYTAlVTMQswCQYDVQQIEwJDQTERMA8GA1UEBxMIU2FuRGllZ28xGDAW
BgNVBAoTD0V4YW1wbGUgQ29tcGFueTESMBAGA1UECxMJTXlPcmdVbml0MQ8wDQYD
VQQDEwZzZXJ2ZXIxDzANBgNVBCkTBnNlcnZlcjEfMB0GCSqGSIb3DQEJARYQaW5m
b0BleGFtcGxlLmNvbTCCASIwDQYJKoZIhvcNAQEBBQADggEPADCCAQoCggEBAJ15
bcGEA6pzU0RpFCn27B/JGl2O4CuEJp3A2VBpd8m28UOkWS7fcrbeeFq9AWjwG+Kd
b0KykwpdXDkkdnUXHBYCEtVEv7esNpHaLbDko6QAabXvY2SSWp3eCBe/GI5BFP2z
NDtv5hcM/kCTyskGzFpz13bT98JVfqbUU+T6MqxGkAK5MPY/TQyUW2yHL3t+7ZMb
ESZQfRqVat/8QaI/gvGavU7HdkGSpKQ4bpeQP1q5QleTc6gfCiUrAVeYHOeSbT1/
e/UoiYVnHnQWptFBYnNhca1KY/MERHS8BedHFmuf/J0KuNjhItBTFwBrM1Ni1PfM
QPqdFFn3uCO11fbqA1ECAwEAAaOCAY4wggGKMAkGA1UdEwQCMAAwEQYJYIZIAYb4
QgEBBAQDAgZAMDQGCWCGSAGG+EIBDQQnFiVFYXN5LVJTQSBHZW5lcmF0ZWQgU2Vy
dmVyIENlcnRpZmljYXRlMB0GA1UdDgQWBBRoAHeWXqCkX+Hxg/Ftuq++ITvagjCB
3wYDVR0jBIHXMIHUgBQ82lLpipm7gjBLezv3ZIB4/y6lT6GBsKSBrTCBqjELMAkG
A1UEBhMCVVMxCzAJBgNVBAgTAkNBMREwDwYDVQQHEwhTYW5EaWVnbzEYMBYGA1UE
ChMPRXhhbXBsZSBDb21wYW55MRIwEAYDVQQLEwlNeU9yZ1VuaXQxGzAZBgNVBAMT
EkV4YW1wbGUgQ29tcGFueSBDQTEPMA0GA1UEKRMGc2VydmVyMR8wHQYJKoZIhvcN
AQkBFhBpbmZvQGV4YW1wbGUuY29tggkAp/SNiIryfp0wEwYDVR0lBAwwCgYIKwYB
BQUHAwEwCwYDVR0PBAQDAgWgMBEGA1UdEQQKMAiCBnNlcnZlcjANBgkqhkiG9w0B
AQsFAAOCAQEAgsRfC9Em0Foj+Ny8fBLf25ZUrNACTTfFKzZEwStcVufwJZpnQFMm
L4IKU267TGjiboDMJEz3kV21qe1z3iDNUawo0pJDOb7slRO+Wt4zt2yjW8d6wluQ
bHPSuNvTrJNpjAIOJ2VTuP3ijnU2Tz5F4AjeydvGy1UnpWkeQ/71rc0hFidc0eEj
HwDe1Masxdrgf/LaGuKE6moOdywHsy2vjmD25vWRKPT0hCMVRkRUv88T3D2NvEFh
oTwrqhLY4T60KO2XCoy5knSI9GUyxB1z9AiFe2nTeTxfGXbM5RtGcpAsg9jRoAGb
JbQD1mgOLol8k3TlCGRHXan3n/HYXWdPQQ==
-----END CERTIFICATE-----
